; ModuleID = 'bench/rocksdb/original/perf_level.ll'
source_filename = "bench/rocksdb/original/perf_level.ll"
target datalayout = "e-m:e-p270:32:32-p271:32:32-p272:64:64-i64:64-i128:128-f80:128-n8:16:32:64-S128"
target triple = "x86_64-pc-linux-gnu"

$_ZTWN7rocksdb10perf_levelE = comdat any

@_ZN7rocksdb10perf_levelE = thread_local global i8 2, align 1

; Function Attrs: mustprogress nofree norecurse nosync nounwind willreturn memory(write, argmem: none, inaccessiblemem: none) uwtable
define void @_ZN7rocksdb12SetPerfLevelENS_9PerfLevelE(i8 noundef zeroext %0) local_unnamed_addr #0 {
  %2 = tail call align 1 ptr @llvm.threadlocal.address.p0(ptr align 1 @_ZN7rocksdb10perf_levelE)
  store i8 %0, ptr %2, align 1, !tbaa !4
  ret void
}

; Function Attrs: mustprogress nocallback nofree nosync nounwind speculatable willreturn memory(none)
declare nonnull ptr @llvm.threadlocal.address.p0(ptr nonnull) #1

; Function Attrs: mustprogress nofree norecurse nosync nounwind willreturn memory(read, argmem: none, inaccessiblemem: none) uwtable
define noundef zeroext i8 @_ZN7rocksdb12GetPerfLevelEv() local_unnamed_addr #2 {
  %1 = tail call align 1 ptr @llvm.threadlocal.address.p0(ptr align 1 @_ZN7rocksdb10perf_levelE)
  %2 = load i8, ptr %1, align 1, !tbaa !4
  ret i8 %2
}

; Function Attrs: uwtable
define weak_odr hidden noundef ptr @_ZTWN7rocksdb10perf_levelE() local_unnamed_addr #3 comdat {
  %1 = tail call align 1 ptr @llvm.threadlocal.address.p0(ptr align 1 @_ZN7rocksdb10perf_levelE)
  ret ptr %1
}


!llvm.module.flags = !{!0, !1, !2, !3}

!0 = !{i32 1, !"wchar_size", i32 4}
!1 = !{i32 8, !"PIC Level", i32 2}
!2 = !{i32 7, !"uwtable", i32 2}
!3 = !{i32 7, !"frame-pointer", i32 1}
!4 = !{!5, !5, i64 0}
!5 = !{!"_ZTSN7rocksdb9PerfLevelE", !6, i64 0}
!6 = !{!"omnipotent char", !7, i64 0}
!7 = !{!"Simple C++ TBAA"}
